target datalayout = "e-m:e-p270:32:32-p271:32:32-p272:64:64-i64:64-i128:128-f80:128-n8:16:32:64-S128"
target triple = "x86_64-pc-linux-gnu"

%"struct.Luau::CodeGen::X64::RegisterX64" = type { i8 }
%"class.Luau::CodeGen::X64::AssemblyBuilderX64" = type <{ %"class.std::vector", %"class.std::vector", %"class.std::__cxx11::basic_string", i8, [3 x i8], i32, i32, [4 x i8], %"class.std::vector.3", %"class.std::vector.8", %"class.Luau::DenseHashMap", %"class.Luau::DenseHashMap.13", i8, [7 x i8], i64, ptr, ptr, i32, [4 x i8] }>
%"class.std::vector" = type { %"struct.std::_Vector_base" }
%"struct.std::_Vector_base" = type { %"struct.std::_Vector_base<unsigned char, std::allocator<unsigned char>>::_Vector_impl" }
%"struct.std::_Vector_base<unsigned char, std::allocator<unsigned char>>::_Vector_impl" = type { %"struct.std::_Vector_base<unsigned char, std::allocator<unsigned char>>::_Vector_impl_data" }
%"struct.std::_Vector_base<unsigned char, std::allocator<unsigned char>>::_Vector_impl_data" = type { ptr, ptr, ptr }
%"class.std::__cxx11::basic_string" = type { %"struct.std::__cxx11::basic_string<char>::_Alloc_hider", i64, %union.anon }
%"struct.std::__cxx11::basic_string<char>::_Alloc_hider" = type { ptr }
%union.anon = type { i64, [8 x i8] }
%"class.std::vector.3" = type { %"struct.std::_Vector_base.4" }
%"struct.std::_Vector_base.4" = type { %"struct.std::_Vector_base<Luau::CodeGen::Label, std::allocator<Luau::CodeGen::Label>>::_Vector_impl" }
%"struct.std::_Vector_base<Luau::CodeGen::Label, std::allocator<Luau::CodeGen::Label>>::_Vector_impl" = type { %"struct.std::_Vector_base<Luau::CodeGen::Label, std::allocator<Luau::CodeGen::Label>>::_Vector_impl_data" }
%"struct.std::_Vector_base<Luau::CodeGen::Label, std::allocator<Luau::CodeGen::Label>>::_Vector_impl_data" = type { ptr, ptr, ptr }
%"class.std::vector.8" = type { %"struct.std::_Vector_base.9" }
%"struct.std::_Vector_base.9" = type { %"struct.std::_Vector_base<unsigned int, std::allocator<unsigned int>>::_Vector_impl" }
%"struct.std::_Vector_base<unsigned int, std::allocator<unsigned int>>::_Vector_impl" = type { %"struct.std::_Vector_base<unsigned int, std::allocator<unsigned int>>::_Vector_impl_data" }
%"struct.std::_Vector_base<unsigned int, std::allocator<unsigned int>>::_Vector_impl_data" = type { ptr, ptr, ptr }
%"class.Luau::DenseHashMap" = type { %"class.Luau::detail::DenseHashTable" }
%"class.Luau::detail::DenseHashTable" = type <{ ptr, i64, i64, i32, [4 x i8] }>
%"class.Luau::DenseHashMap.13" = type { %"class.Luau::detail::DenseHashTable.14" }
%"class.Luau::detail::DenseHashTable.14" = type <{ ptr, i64, i64, i64, [8 x i8] }>
%"struct.Luau::CodeGen::X64::OperandX64" = type { i8, %"struct.Luau::CodeGen::X64::RegisterX64", %"struct.Luau::CodeGen::X64::RegisterX64", i8, i32 }

; Function Attrs: mustprogress nounwind uwtable
define dso_local void @_ZN4Luau7CodeGen3X6418AssemblyBuilderX645placeEh(ptr noundef nonnull align 8 dereferenceable(252) %0, i8 noundef zeroext %1) #1 align 2 {
  %3 = alloca ptr, align 8
  %4 = alloca i8, align 1
  store ptr %0, ptr %3, align 8, !tbaa !4
  store i8 %1, ptr %4, align 1, !tbaa !79
  %5 = load ptr, ptr %3, align 8
  %6 = load i8, ptr %4, align 1, !tbaa !79
  %7 = getelementptr inbounds nuw %"class.Luau::CodeGen::X64::AssemblyBuilderX64", ptr %5, i32 0, i32 15
  %8 = load ptr, ptr %7, align 8, !tbaa !52
  %9 = getelementptr inbounds nuw i8, ptr %8, i32 1
  store ptr %9, ptr %7, align 8, !tbaa !52
  store i8 %6, ptr %8, align 1, !tbaa !79
  ret void
}

; Function Attrs: mustprogress uwtable
define dso_local void @_ZN4Luau7CodeGen3X6418AssemblyBuilderX648placeVexENS1_10OperandX64ES3_S3_bhh(ptr noundef nonnull align 8 dereferenceable(252) %0, i64 %1, i64 %2, i64 %3, i1 noundef zeroext %4, i8 noundef zeroext %5, i8 noundef zeroext %6) #0 align 2 {
  %8 = alloca %"struct.Luau::CodeGen::X64::OperandX64", align 4
  %9 = alloca %"struct.Luau::CodeGen::X64::OperandX64", align 4
  %10 = alloca %"struct.Luau::CodeGen::X64::OperandX64", align 4
  %11 = alloca ptr, align 8
  %12 = alloca i8, align 1
  %13 = alloca i8, align 1
  %14 = alloca i8, align 1
  store i64 %1, ptr %8, align 4
  store i64 %2, ptr %9, align 4
  store i64 %3, ptr %10, align 4
  store ptr %0, ptr %11, align 8, !tbaa !4
  %15 = zext i1 %4 to i8
  store i8 %15, ptr %12, align 1, !tbaa !9
  store i8 %5, ptr %13, align 1, !tbaa !79
  store i8 %6, ptr %14, align 1, !tbaa !79
  %16 = load ptr, ptr %11, align 8
  call void @_ZN4Luau7CodeGen3X6418AssemblyBuilderX645placeEh(ptr noundef nonnull align 8 dereferenceable(252) %16, i8 noundef zeroext -60)
  %17 = getelementptr inbounds nuw %"struct.Luau::CodeGen::X64::OperandX64", ptr %8, i32 0, i32 2
  %18 = load i8, ptr %17, align 2
  %19 = lshr i8 %18, 3
  %20 = zext i8 %19 to i32
  %21 = xor i32 %20, -1
  %22 = and i32 %21, 8
  %23 = shl i32 %22, 4
  %24 = getelementptr inbounds nuw %"struct.Luau::CodeGen::X64::OperandX64", ptr %10, i32 0, i32 1
  %25 = load i8, ptr %24, align 1
  %26 = lshr i8 %25, 3
  %27 = zext i8 %26 to i32
  %28 = xor i32 %27, -1
  %29 = and i32 %28, 8
  %30 = shl i32 %29, 3
  %31 = or i32 %23, %30
  %32 = getelementptr inbounds nuw %"struct.Luau::CodeGen::X64::OperandX64", ptr %10, i32 0, i32 2
  %33 = load i8, ptr %32, align 2
  %34 = lshr i8 %33, 3
  %35 = zext i8 %34 to i32
  %36 = xor i32 %35, -1
  %37 = and i32 %36, 8
  %38 = shl i32 %37, 2
  %39 = or i32 %31, %38
  %40 = load i8, ptr %13, align 1, !tbaa !79
  %41 = zext i8 %40 to i32
  %42 = or i32 %39, %41
  %43 = trunc i32 %42 to i8
  call void @_ZN4Luau7CodeGen3X6418AssemblyBuilderX645placeEh(ptr noundef nonnull align 8 dereferenceable(252) %16, i8 noundef zeroext %43)
  %44 = load i8, ptr %12, align 1, !tbaa !9, !range !13, !noundef !14
  %45 = trunc i8 %44 to i1
  %46 = select i1 %45, i32 128, i32 0
  %47 = getelementptr inbounds nuw %"struct.Luau::CodeGen::X64::OperandX64", ptr %9, i32 0, i32 2
  %48 = load i8, ptr %47, align 2
  %49 = lshr i8 %48, 3
  %50 = zext i8 %49 to i32
  %51 = xor i32 %50, -1
  %52 = and i32 %51, 15
  %53 = shl i32 %52, 3
  %54 = or i32 %46, %53
  %55 = getelementptr inbounds nuw %"struct.Luau::CodeGen::X64::OperandX64", ptr %8, i32 0, i32 2
  %56 = load i8, ptr %55, align 2
  %57 = and i8 %56, 7
  %58 = icmp eq i8 %57, 6
  %59 = zext i1 %58 to i32
  %60 = shl i32 %59, 2
  %61 = or i32 %54, %60
  %62 = load i8, ptr %14, align 1, !tbaa !79
  %63 = zext i8 %62 to i32
  %64 = or i32 %61, %63
  %65 = trunc i32 %64 to i8
  call void @_ZN4Luau7CodeGen3X6418AssemblyBuilderX645placeEh(ptr noundef nonnull align 8 dereferenceable(252) %16, i8 noundef zeroext %65)
  ret void
}