; Function Attrs: mustprogress nofree norecurse nosync nounwind willreturn memory(write, argmem: readwrite, inaccessiblemem: none) uwtable
define dso_local void @_ZN4Luau7CodeGen3X6418AssemblyBuilderX648placeVexENS1_10OperandX64ES3_S3_bhh(ptr noundef nonnull align 8 captures(none) dereferenceable(252) %0, i64 %1, i64 %2, i64 %3, i1 noundef zeroext %4, i8 noundef zeroext %5, i8 noundef zeroext %6) local_unnamed_addr #5 align 2 {
  %.sroa.17.0.extract.shift = lshr i64 %1, 16
  %.sroa.17.0.extract.trunc = trunc i64 %.sroa.17.0.extract.shift to i8
  %8 = getelementptr inbounds nuw i8, ptr %0, i64 232
  %9 = load ptr, ptr %8, align 8, !tbaa !51
  %10 = getelementptr inbounds nuw i8, ptr %9, i64 1
  store ptr %10, ptr %8, align 8, !tbaa !51
  store i8 -60, ptr %9, align 1, !tbaa !13
  %11 = shl i8 %.sroa.17.0.extract.trunc, 1
  %12 = and i8 %11, -128
  %13 = trunc i64 %3 to i32
  %14 = lshr i32 %13, 8
  %15 = and i32 %14, 64
  %16 = lshr i32 %13, 17
  %17 = and i32 %16, 32
  %18 = or disjoint i32 %17, %15
  %19 = trunc nuw nsw i32 %18 to i8
  %20 = or disjoint i8 %12, %19
  %21 = xor i8 %20, -32
  %22 = or i8 %21, %5
  %23 = load ptr, ptr %8, align 8, !tbaa !51
  %24 = getelementptr inbounds nuw i8, ptr %23, i64 1
  store ptr %24, ptr %8, align 8, !tbaa !51
  store i8 %22, ptr %23, align 1, !tbaa !13
  %25 = select i1 %4, i32 128, i32 0
  %26 = trunc i64 %2 to i32
  %27 = lshr i32 %26, 16
  %28 = and i32 %27, 120
  %29 = or disjoint i32 %28, %25
  %30 = and i8 %.sroa.17.0.extract.trunc, 7
  %31 = icmp eq i8 %30, 6
  %32 = select i1 %31, i32 4, i32 0
  %33 = or disjoint i32 %29, %32
  %34 = trunc nuw i32 %33 to i8
  %35 = xor i8 %34, 120
  %36 = or i8 %35, %6
  %37 = load ptr, ptr %8, align 8, !tbaa !51
  %38 = getelementptr inbounds nuw i8, ptr %37, i64 1
  store ptr %38, ptr %8, align 8, !tbaa !51
  store i8 %36, ptr %37, align 1, !tbaa !13
  ret void
}